Certificate:
    Data:
        Version: 3 (0x2)
        Serial Number: 2 (0x2)
        Signature Algorithm: sha1WithRSAEncryption
        Issuer: CN=SWS CA, L=Shanghai, O=SWSCA-kit-laptop/emailAddress=richardchaiyi@163.com
        Validity
            Not Before: Sep 16 09:40:04 2008 GMT
            Not After : Sep 15 09:40:04 2013 GMT
        Subject: CN=kiosk, L=Shanghai, O=SWSCA-kit-laptop/emailAddress=richardchaiyi@163.com
        Subject Public Key Info:
            Public Key Algorithm: rsaEncryption
            RSA Public Key: (1024 bit)
                Modulus (1024 bit):
                    00:ea:61:c7:7d:a8:23:41:c1:3e:49:9c:3c:74:73:
                    5f:08:28:28:70:14:95:ce:a1:d0:64:c7:7a:7f:31:
                    80:81:17:a7:0b:c8:5a:bc:60:ef:9d:85:9f:67:33:
                    f2:97:6f:ac:1d:6e:e1:26:b5:d6:fb:9e:67:80:35:
                    5e:a7:34:53:0b:22:03:22:1d:cb:e7:a3:22:10:6d:
                    b1:1f:eb:76:69:76:d6:8b:75:99:50:27:87:c2:54:
                    ed:6c:73:aa:e8:7b:23:d6:68:10:a3:56:fa:cd:08:
                    56:82:94:fa:6e:2a:3f:0a:e7:6e:d9:d3:75:04:53:
                    a5:42:72:7f:e2:0c:de:59:57
                Exponent: 65537 (0x10001)
        X509v3 extensions:
            X509v3 Basic Constraints: 
                CA:FALSE
            X509v3 Subject Key Identifier: 
                FB:1C:38:C9:8A:46:2D:BC:66:D5:32:2E:8C:D2:1E:BC:0E:F9:54:E7
            X509v3 Authority Key Identifier: 
                keyid:67:D0:32:21:14:BA:9B:43:04:82:60:03:CD:CF:DB:EE:EC:87:79:99
                DirName:/CN=SWS CA/L=Shanghai/O=SWSCA-kit-laptop/emailAddress=richardchaiyi@163.com
                serial:DB:74:76:0B:29:C1:D3:4D

    Signature Algorithm: sha1WithRSAEncryption
        36:84:a0:2e:25:dc:a1:ca:0f:c8:6e:6c:bd:3f:ad:a6:5d:b9:
        50:1b:d3:e4:bb:56:13:12:c9:07:d0:a9:2a:c7:a6:3d:55:82:
        80:16:76:00:10:d7:20:e5:b1:a0:93:6d:05:cb:c3:56:ff:ba:
        c4:c5:7b:c9:11:e8:b9:8f:f3:ec:d1:f3:c5:a7:cf:6d:9e:8f:
        da:fc:ba:68:65:35:e9:8c:fa:6d:c1:0a:a6:f5:af:54:57:f8:
        9d:c5:b7:c3:a8:b7:0d:da:2c:4f:fc:2f:30:51:1d:2f:44:50:
        6e:0f:55:9d:7a:bf:1a:b0:e2:85:13:50:ed:80:fa:db:83:66:
        16:d8:91:e5:2a:e1:8a:8c:8f:47:ef:b1:2c:59:1c:52:83:2d:
        a5:42:b8:4c:86:5d:ae:cf:b4:28:aa:58:3a:43:49:66:bf:ef:
        37:ef:46:d7:8b:67:63:6d:4d:b6:e5:f1:cd:b1:6f:92:aa:a2:
        40:24:cc:c2:0b:94:ba:1a:38:0b:03:52:f9:ff:b7:25:74:f8:
        59:97:d5:e5:7d:9a:9c:5e:d0:c9:da:fe:1d:80:7b:9f:3c:04:
        cb:a8:a6:91:d1:dc:d2:56:8d:eb:13:78:f4:7a:38:47:4e:6c:
        32:e0:34:d4:c0:a7:33:e5:ad:41:95:08:d5:5e:8d:87:b7:0b:
        c2:db:75:9e
-----BEGIN CERTIFICATE-----
MIIDiDCCAnCgAwIBAgIBAjANBgkqhkiG9w0BAQUFADBlMQ8wDQYDVQQDEwZTV1Mg
Q0ExETAPBgNVBAcTCFNoYW5naGFpMRkwFwYDVQQKExBTV1NDQS1raXQtbGFwdG9w
MSQwIgYJKoZIhvcNAQkBFhVyaWNoYXJkY2hhaXlpQDE2My5jb20wHhcNMDgwOTE2
MDk0MDA0WhcNMTMwOTE1MDk0MDA0WjBkMQ4wDAYDVQQDEwVraW9zazERMA8GA1UE
BxMIU2hhbmdoYWkxGTAXBgNVBAoTEFNXU0NBLWtpdC1sYXB0b3AxJDAiBgkqhkiG
9w0BCQEWFXJpY2hhcmRjaGFpeWlAMTYzLmNvbTCBnzANBgkqhkiG9w0BAQEFAAOB
jQAwgYkCgYEA6mHHfagjQcE+SZw8dHNfCCgocBSVzqHQZMd6fzGAgRenC8havGDv
nYWfZzPyl2+sHW7hJrXW+55ngDVepzRTCyIDIh3L56MiEG2xH+t2aXbWi3WZUCeH
wlTtbHOq6Hsj1mgQo1b6zQhWgpT6bio/Cudu2dN1BFOlQnJ/4gzeWVcCAwEAAaOB
xzCBxDAJBgNVHRMEAjAAMB0GA1UdDgQWBBT7HDjJikYtvGbVMi6M0h68DvlU5zCB
lwYDVR0jBIGPMIGMgBRn0DIhFLqbQwSCYAPNz9vu7Id5maFppGcwZTEPMA0GA1UE
AxMGU1dTIENBMREwDwYDVQQHEwhTaGFuZ2hhaTEZMBcGA1UEChMQU1dTQ0Eta2l0
LWxhcHRvcDEkMCIGCSqGSIb3DQEJARYVcmljaGFyZGNoYWl5aUAxNjMuY29tggkA
23R2CynB000wDQYJKoZIhvcNAQEFBQADggEBADaEoC4l3KHKD8hubL0/raZduVAb
0+S7VhMSyQfQqSrHpj1VgoAWdgAQ1yDlsaCTbQXLw1b/usTFe8kR6LmP8+zR88Wn
z22ej9r8umhlNemM+m3BCqb1r1RX+J3Ft8Ootw3aLE/8LzBRHS9EUG4PVZ16vxqw
4oUTUO2A+tuDZhbYkeUq4YqMj0fvsSxZHFKDLaVCuEyGXa7PtCiqWDpDSWa/7zfv
RteLZ2NtTbbl8c2xb5KqokAkzMILlLoaOAsDUvn/tyV0+FmX1eV9mpxe0Mna/h2A
e588BMuoppHR3NJWjesTePR6OEdObDLgNNTApzPlrUGVCNVejYe3C8LbdZ4=
-----END CERTIFICATE-----
