Certificate:
    Data:
        Version: 3 (0x2)
        Serial Number: 3 (0x3)
        Signature Algorithm: sha1WithRSAEncryption
        Issuer: CN=SWS CA, L=Shanghai, O=SWSCA-kit-laptop/emailAddress=richardchaiyi@163.com
        Validity
            Not Before: Sep 16 10:00:59 2008 GMT
            Not After : Sep 15 10:00:59 2013 GMT
        Subject: CN=My Server access, L=Shanghai, O=SWSCA-kit-laptop
        Subject Public Key Info:
            Public Key Algorithm: rsaEncryption
            RSA Public Key: (1024 bit)
                Modulus (1024 bit):
                    00:d5:70:a6:a6:9e:9b:2c:25:2e:a8:7f:d2:fe:cf:
                    bc:c3:2d:83:9e:df:ed:3f:f9:9c:0c:7d:6f:d6:b9:
                    dc:e6:33:fb:68:5c:b3:96:df:45:aa:da:4e:9d:b4:
                    60:c0:e4:ee:9f:65:67:3c:82:d4:a5:5d:7e:5c:2f:
                    40:d1:29:bd:90:9a:53:70:e5:82:49:58:59:a5:a4:
                    a0:f7:00:60:d8:e0:11:d4:78:cc:06:93:b8:43:bf:
                    d5:21:30:0a:cd:6b:8f:89:7f:38:2a:5e:21:4d:01:
                    92:e1:ec:88:47:2b:55:25:ae:92:b6:fb:20:05:7d:
                    59:77:96:81:3d:3b:a7:fe:3b
                Exponent: 65537 (0x10001)
        X509v3 extensions:
            X509v3 Basic Constraints: 
                CA:FALSE
            X509v3 Subject Key Identifier: 
                1D:88:70:81:45:26:AB:E8:2E:04:79:25:21:A0:2B:5E:00:D2:51:BC
            X509v3 Authority Key Identifier: 
                keyid:67:D0:32:21:14:BA:9B:43:04:82:60:03:CD:CF:DB:EE:EC:87:79:99
                DirName:/CN=SWS CA/L=Shanghai/O=SWSCA-kit-laptop/emailAddress=richardchaiyi@163.com
                serial:DB:74:76:0B:29:C1:D3:4D

    Signature Algorithm: sha1WithRSAEncryption
        93:c8:89:66:f3:b7:ad:dd:80:28:8f:c2:e5:59:fa:b7:00:c4:
        25:26:c2:ac:7c:d4:93:95:f2:30:c4:77:5f:ba:e3:66:16:a0:
        1e:2f:f4:cc:cc:2e:4e:a6:df:6c:40:82:c3:2c:67:cc:6c:58:
        4b:df:3e:5a:ab:c9:91:6e:ef:a7:d0:d2:63:ce:a2:83:d6:ba:
        46:6b:83:81:df:76:4e:e6:0a:92:91:00:c4:0e:6f:ce:c1:a2:
        e8:c5:b1:7b:87:44:0b:c0:97:0e:22:be:81:60:e3:84:86:3a:
        10:da:73:bd:ad:55:ee:e3:23:08:e5:24:c3:3c:3e:80:41:8f:
        c3:a1:c3:de:d1:3b:79:df:4c:bb:c0:e1:ea:73:e6:7b:e7:c4:
        f7:05:00:36:6b:10:eb:d0:fc:5a:2e:21:08:b5:3e:82:66:0e:
        bf:9a:6f:43:d3:77:26:9c:cf:2b:6e:aa:1a:37:40:e5:e4:33:
        57:23:3c:a4:a7:7e:ad:4c:b0:88:d9:8e:ce:40:66:41:da:b4:
        0e:a9:b9:da:a1:91:bd:49:96:bc:f4:52:4b:db:38:12:64:1a:
        98:00:79:54:56:01:5e:e0:f8:17:d3:af:68:07:2c:37:0a:c6:
        6a:10:99:7f:e4:f2:21:2c:fc:24:93:3e:94:e0:eb:b6:c2:2d:
        ed:37:5a:da
-----BEGIN CERTIFICATE-----
MIIDbTCCAlWgAwIBAgIBAzANBgkqhkiG9w0BAQUFADBlMQ8wDQYDVQQDEwZTV1Mg
Q0ExETAPBgNVBAcTCFNoYW5naGFpMRkwFwYDVQQKExBTV1NDQS1raXQtbGFwdG9w
MSQwIgYJKoZIhvcNAQkBFhVyaWNoYXJkY2hhaXlpQDE2My5jb20wHhcNMDgwOTE2
MTAwMDU5WhcNMTMwOTE1MTAwMDU5WjBJMRkwFwYDVQQDExBNeSBTZXJ2ZXIgYWNj
ZXNzMREwDwYDVQQHEwhTaGFuZ2hhaTEZMBcGA1UEChMQU1dTQ0Eta2l0LWxhcHRv
cDCBnzANBgkqhkiG9w0BAQEFAAOBjQAwgYkCgYEA1XCmpp6bLCUuqH/S/s+8wy2D
nt/tP/mcDH1v1rnc5jP7aFyzlt9FqtpOnbRgwOTun2VnPILUpV1+XC9A0Sm9kJpT
cOWCSVhZpaSg9wBg2OAR1HjMBpO4Q7/VITAKzWuPiX84Kl4hTQGS4eyIRytVJa6S
tvsgBX1Zd5aBPTun/jsCAwEAAaOBxzCBxDAJBgNVHRMEAjAAMB0GA1UdDgQWBBQd
iHCBRSar6C4EeSUhoCteANJRvDCBlwYDVR0jBIGPMIGMgBRn0DIhFLqbQwSCYAPN
z9vu7Id5maFppGcwZTEPMA0GA1UEAxMGU1dTIENBMREwDwYDVQQHEwhTaGFuZ2hh
aTEZMBcGA1UEChMQU1dTQ0Eta2l0LWxhcHRvcDEkMCIGCSqGSIb3DQEJARYVcmlj
aGFyZGNoYWl5aUAxNjMuY29tggkA23R2CynB000wDQYJKoZIhvcNAQEFBQADggEB
AJPIiWbzt63dgCiPwuVZ+rcAxCUmwqx81JOV8jDEd1+642YWoB4v9MzMLk6m32xA
gsMsZ8xsWEvfPlqryZFu76fQ0mPOooPWukZrg4Hfdk7mCpKRAMQOb87BoujFsXuH
RAvAlw4ivoFg44SGOhDac72tVe7jIwjlJMM8PoBBj8Ohw97RO3nfTLvA4epz5nvn
xPcFADZrEOvQ/FouIQi1PoJmDr+ab0PTdyaczytuqho3QOXkM1cjPKSnfq1MsIjZ
js5AZkHatA6pudqhkb1Jlrz0UkvbOBJkGpgAeVRWAV7g+BfTr2gHLDcKxmoQmX/k
8iEs/CSTPpTg67bCLe03Wto=
-----END CERTIFICATE-----
